target datalayout = "e-m:e-p270:32:32-p271:32:32-p272:64:64-i64:64-i128:128-f80:128-n8:16:32:64-S128"
target triple = "x86_64-unknown-linux-gnu"

@.str = private unnamed_addr constant [127 x i8] c"generated/home/dtcxzyw/WorkSpace/Projects/compilers/llvm-opt-benchmark/bench/libquic/libquic/boringssl/crypto/x509v3/v3_conf.c\00", align 1

; Function Attrs: nounwind uwtable
define hidden ptr @X509V3_EXT_i2d(i32 noundef %ext_nid, i32 noundef %crit, ptr noundef %ext_struc) #0 {
entry:
  %retval = alloca ptr, align 8
  %ext_nid.addr = alloca i32, align 4
  %crit.addr = alloca i32, align 4
  %ext_struc.addr = alloca ptr, align 8
  %method = alloca ptr, align 8
  store i32 %ext_nid, ptr %ext_nid.addr, align 4
  store i32 %crit, ptr %crit.addr, align 4
  store ptr %ext_struc, ptr %ext_struc.addr, align 8
  %0 = load i32, ptr %ext_nid.addr, align 4
  %call = call ptr @X509V3_EXT_get_nid(i32 noundef %0)
  store ptr %call, ptr %method, align 8
  %tobool = icmp ne ptr %call, null
  br i1 %tobool, label %if.end, label %if.then

if.then:                                          ; preds = %entry
  call void @ERR_put_error(i32 noundef 20, i32 noundef 0, i32 noundef 157, ptr noundef @.str, i32 noundef 223)
  store ptr null, ptr %retval, align 8
  br label %return

if.end:                                           ; preds = %entry
  %1 = load ptr, ptr %method, align 8
  %2 = load i32, ptr %ext_nid.addr, align 4
  %3 = load i32, ptr %crit.addr, align 4
  %4 = load ptr, ptr %ext_struc.addr, align 8
  %call1 = call ptr @do_ext_i2d(ptr noundef %1, i32 noundef %2, i32 noundef %3, ptr noundef %4)
  store ptr %call1, ptr %retval, align 8
  br label %return

return:                                           ; preds = %if.end, %if.then
  %5 = load ptr, ptr %retval, align 8
  ret ptr %5
}