; Function Attrs: nounwind uwtable
define hidden ptr @X509V3_EXT_i2d(i32 noundef %ext_nid, i32 noundef %crit, ptr noundef %ext_struc) local_unnamed_addr #0 {
entry:
  %call = tail call ptr @X509V3_EXT_get_nid(i32 noundef %ext_nid) #10
  %tobool.not = icmp eq ptr %call, null
  br i1 %tobool.not, label %if.then, label %if.end

if.then:                                          ; preds = %entry
  tail call void @ERR_put_error(i32 noundef 20, i32 noundef 0, i32 noundef 157, ptr noundef nonnull @.str, i32 noundef 223) #10
  br label %return

if.end:                                           ; preds = %entry
  %call1 = tail call fastcc ptr @do_ext_i2d(ptr noundef %call, i32 noundef %ext_nid, i32 noundef %crit, ptr noundef %ext_struc)
  br label %return

return:                                           ; preds = %if.end, %if.then
  %retval.0 = phi ptr [ %call1, %if.end ], [ null, %if.then ]
  ret ptr %retval.0
}